; Function Attrs: mustprogress uwtable
define void @_ZN6icu_7511Formattable9setStringERKNS_13UnicodeStringE(ptr nocapture noundef nonnull align 8 dereferenceable(112) %this, ptr noundef nonnull align 8 dereferenceable(64) %stringToCopy) local_unnamed_addr #1 align 2 personality ptr @__gxx_personality_v0 {
entry:
  tail call void @_ZN6icu_7511Formattable7disposeEv(ptr noundef nonnull align 8 dereferenceable(112) %this)
  %fType = getelementptr inbounds i8, ptr %this, i64 40
  store i32 3, ptr %fType, align 8
  %call = tail call noundef ptr @_ZN6icu_757UMemorynwEm(i64 noundef 64) #16
  %new.isnull = icmp eq ptr %call, null
  br i1 %new.isnull, label %new.cont, label %new.notnull

new.notnull:                                      ; preds = %entry
  invoke void @_ZN6icu_7513UnicodeStringC1ERKS0_(ptr noundef nonnull align 8 dereferenceable(64) %call, ptr noundef nonnull align 8 dereferenceable(64) %stringToCopy)
          to label %new.cont unwind label %lpad

new.cont:                                         ; preds = %new.notnull, %entry
  %fValue = getelementptr inbounds i8, ptr %this, i64 8
  store ptr %call, ptr %fValue, align 8
  ret void

lpad:                                             ; preds = %new.notnull
  %0 = landingpad { ptr, i32 }
          cleanup
  tail call void @_ZN6icu_757UMemorydlEPv(ptr noundef nonnull %call) #16
  resume { ptr, i32 } %0
}